Certificate:
    Data:
        Version: 3 (0x2)
        Serial Number: 1362775461 (0x513a4da5)
        Signature Algorithm: sha256WithRSAEncryption
        Issuer: C=Unknown, ST=Unknown, L=Unknown, O=Unknown, OU=Unknown, CN=Unknown
        Validity
            Not Before: Oct  8 23:10:34 2014 GMT
            Not After : Jan  6 23:10:34 2015 GMT
        Subject: C=Unknown, ST=Unknown, L=Unknown, O=Unknown, OU=Unknown, CN=Unknown
        Subject Public Key Info:
            Public Key Algorithm: rsaEncryption
            RSA Public Key: (2048 bit)
                Modulus (2048 bit):
                    00:83:4d:72:ce:33:08:4d:fc:f4:a2:41:da:0e:e1:
                    23:23:bd:59:f9:ed:48:60:7e:8c:65:72:d8:83:56:
                    ac:9c:11:99:c6:39:fb:19:6e:b2:f7:77:58:13:7c:
                    9c:d8:6e:5a:b0:93:f4:4d:95:cb:be:b9:f9:8f:64:
                    3c:d9:86:79:4d:d3:17:d5:aa:82:64:dc:12:76:85:
                    c8:fa:d2:3b:87:cf:86:dd:a6:16:93:b3:7b:67:6f:
                    4b:2a:8d:27:ef:7e:28:14:2b:08:ca:dd:3e:b9:63:
                    cd:d4:e3:24:0d:df:5a:10:db:43:32:90:e0:81:56:
                    cb:35:ae:2c:d6:e9:5c:31:e3:89:bb:58:c2:95:13:
                    f2:af:8e:94:46:29:d9:11:67:05:0c:ba:e0:86:cb:
                    b3:ea:c6:51:a9:8c:b6:99:c2:ed:de:3f:aa:ef:c1:
                    b5:b6:aa:07:4b:76:0c:52:3f:43:47:96:4b:c9:75:
                    57:2c:e9:ea:ed:6b:4e:be:d9:8d:b1:3f:f9:35:41:
                    49:65:ee:ea:8f:5c:d0:98:46:2f:dc:6a:71:9e:a9:
                    6e:41:cf:71:9e:49:43:b1:e3:b1:8c:c5:ae:47:49:
                    d2:b1:f1:67:97:75:35:9a:07:63:e0:e6:cd:07:23:
                    99:98:9e:5c:41:23:56:4c:1c:3e:ef:09:ed:a2:f0:
                    da:a7
                Exponent: 65537 (0x10001)
        X509v3 extensions:
            X509v3 Subject Key Identifier: 
                02:25:CC:18:00:FA:F9:10:EA:07:CA:D5:A3:B3:5E:EB:17:EE:51:11
    Signature Algorithm: sha256WithRSAEncryption
        38:1d:2e:62:c1:34:84:08:7b:bc:11:5e:bf:b3:9f:c6:44:b8:
        1d:4c:c9:48:f4:f7:94:5c:58:8b:ed:33:20:4a:c8:e8:7d:ca:
        8c:97:ac:93:e8:ce:91:1b:97:d9:06:01:c0:6e:b9:bf:d0:e8:
        ca:f1:0e:46:f6:9b:5d:26:08:eb:0b:ea:99:97:05:3c:35:81:
        6f:38:45:1c:0e:f5:94:a6:ec:c0:76:44:26:84:d4:9d:d5:cf:
        24:6d:89:74:62:d0:04:13:75:5c:6e:ea:cc:8b:8d:d3:0f:c3:
        ea:bb:b3:3b:4f:ec:d4:26:36:43:c1:2b:98:4e:75:ab:b2:78:
        ab:75:56:c3:0d:cf:78:c9:4b:03:85:04:55:f7:11:e0:25:d7:
        ff:0f:ee:18:a4:97:ab:b0:37:fe:aa:3e:8c:55:42:36:b2:dd:
        6b:c7:c9:1a:ab:8d:c6:dc:07:ed:88:c6:ff:87:c1:f0:c0:04:
        53:15:fc:12:6f:7c:0f:53:2b:57:42:b3:69:ad:e7:21:61:42:
        40:f6:cf:12:c5:73:35:ce:4e:38:7e:25:ef:2c:e4:78:e1:bc:
        ad:2d:99:ec:9a:6d:c8:88:8f:74:d0:a5:b3:36:06:67:fe:d2:
        6b:ac:c5:dd:bc:30:a5:20:06:b6:c3:3d:fd:34:86:e3:64:93:
        93:84:2c:fe
-----BEGIN CERTIFICATE-----
MIIDdzCCAl+gAwIBAgIEUTpNpTANBgkqhkiG9w0BAQsFADBsMRAwDgYDVQQGEwdV
bmtub3duMRAwDgYDVQQIEwdVbmtub3duMRAwDgYDVQQHEwdVbmtub3duMRAwDgYD
VQQKEwdVbmtub3duMRAwDgYDVQQLEwdVbmtub3duMRAwDgYDVQQDEwdVbmtub3du
MB4XDTE0MTAwODIzMTAzNFoXDTE1MDEwNjIzMTAzNFowbDEQMA4GA1UEBhMHVW5r
bm93bjEQMA4GA1UECBMHVW5rbm93bjEQMA4GA1UEBxMHVW5rbm93bjEQMA4GA1UE
ChMHVW5rbm93bjEQMA4GA1UECxMHVW5rbm93bjEQMA4GA1UEAxMHVW5rbm93bjCC
ASIwDQYJKoZIhvcNAQEBBQADggEPADCCAQoCggEBAINNcs4zCE389KJB2g7hIyO9
WfntSGB+jGVy2INWrJwRmcY5+xlusvd3WBN8nNhuWrCT9E2Vy765+Y9kPNmGeU3T
F9WqgmTcEnaFyPrSO4fPht2mFpOze2dvSyqNJ+9+KBQrCMrdPrljzdTjJA3fWhDb
QzKQ4IFWyzWuLNbpXDHjibtYwpUT8q+OlEYp2RFnBQy64IbLs+rGUamMtpnC7d4/
qu/BtbaqB0t2DFI/Q0eWS8l1Vyzp6u1rTr7ZjbE/+TVBSWXu6o9c0JhGL9xqcZ6p
bkHPcZ5JQ7HjsYzFrkdJ0rHxZ5d1NZoHY+DmzQcjmZieXEEjVkwcPu8J7aLw2qcC
AwEAAaMhMB8wHQYDVR0OBBYEFAIlzBgA+vkQ6gfK1aOzXusX7lERMA0GCSqGSIb3
DQEBCwUAA4IBAQA4HS5iwTSECHu8EV6/s5/GRLgdTMlI9PeUXFiL7TMgSsjofcqM
l6yT6M6RG5fZBgHAbrm/0OjK8Q5G9ptdJgjrC+qZlwU8NYFvOEUcDvWUpuzAdkQm
hNSd1c8kbYl0YtAEE3VcburMi43TD8Pqu7M7T+zUJjZDwSuYTnWrsnirdVbDDc94
yUsDhQRV9xHgJdf/D+4YpJersDf+qj6MVUI2st1rx8kaq43G3AftiMb/h8HwwART
FfwSb3wPUytXQrNprechYUJA9s8SxXM1zk44fiXvLOR44bytLZnsmm3IiI900KWz
NgZn/tJrrMXdvDClIAa2wz39NIbjZJOThCz+
-----END CERTIFICATE-----
